---
triple:          'arm64-apple-darwin'
binary-path:     '/Users/namsulee/source/hero_algo/240113/main'
relocations:
  - { offsetInCU: 0x26, offset: 0x26, size: 0x8, addend: 0x0, symName: _main, symObjAddr: 0x0, symBinAddr: 0x1000008EC, symSize: 0x100 }
  - { offsetInCU: 0x41, offset: 0x41, size: 0x8, addend: 0x0, symName: _main, symObjAddr: 0x0, symBinAddr: 0x1000008EC, symSize: 0x100 }
  - { offsetInCU: 0xAF, offset: 0xAF, size: 0x8, addend: 0x0, symName: __ZL3runv, symObjAddr: 0x100, symBinAddr: 0x1000009EC, symSize: 0x290 }
  - { offsetInCU: 0x3F, offset: 0x220, size: 0x8, addend: 0x0, symName: _Adj, symObjAddr: 0x1A668, symBinAddr: 0x100008000, symSize: 0x0 }
  - { offsetInCU: 0x1C52, offset: 0x1E33, size: 0x8, addend: 0x0, symName: __ZNSt3__117__floyd_sift_downB7v160006INS_17_ClassicAlgPolicyER7compareNS_11__wrap_iterIP4NodeEEEET1_S8_OT0_NS_15iterator_traitsIS8_E15difference_typeE, symObjAddr: 0x2B44, symBinAddr: 0x1000037C0, symSize: 0x14C }
  - { offsetInCU: 0x2C04, offset: 0x2DE5, size: 0x8, addend: 0x0, symName: __ZNSt3__1neB7v160006IP4NodeEEbRKNS_11__wrap_iterIT_EES7_, symObjAddr: 0x60C, symBinAddr: 0x100001288, symSize: 0x34 }
  - { offsetInCU: 0x2C47, offset: 0x2E28, size: 0x8, addend: 0x0, symName: __ZNSt3__1eqB7v160006IP4NodeEEbRKNS_11__wrap_iterIT_EES7_, symObjAddr: 0x6EC, symBinAddr: 0x100001368, symSize: 0x48 }
  - { offsetInCU: 0x2C8A, offset: 0x2E6B, size: 0x8, addend: 0x0, symName: __ZNSt3__119__debug_db_insert_cB7v160006INS_6vectorI4NodeNS_9allocatorIS2_EEEEEEvPT_, symObjAddr: 0x818, symBinAddr: 0x100001494, symSize: 0x10 }
  - { offsetInCU: 0x2CBB, offset: 0x2E9C, size: 0x8, addend: 0x0, symName: __ZNSt3__118__debug_db_erase_cB7v160006INS_6vectorI4NodeNS_9allocatorIS2_EEEEEEvPT_, symObjAddr: 0xADC, symBinAddr: 0x100001758, symSize: 0x10 }
  - { offsetInCU: 0x2CEC, offset: 0x2ECD, size: 0x8, addend: 0x0, symName: __ZNSt3__112__to_addressB7v160006I4NodeEEPT_S3_, symObjAddr: 0xC20, symBinAddr: 0x10000189C, symSize: 0x14 }
  - { offsetInCU: 0x2D21, offset: 0x2F02, size: 0x8, addend: 0x0, symName: __ZNSt3__119__libcpp_deallocateB7v160006EPvmm, symObjAddr: 0xD40, symBinAddr: 0x1000019BC, symSize: 0x60 }
  - { offsetInCU: 0x2D86, offset: 0x2F67, size: 0x8, addend: 0x0, symName: __ZNSt3__124__is_overaligned_for_newB7v160006Em, symObjAddr: 0xDA0, symBinAddr: 0x100001A1C, symSize: 0x20 }
  - { offsetInCU: 0x2DB4, offset: 0x2F95, size: 0x8, addend: 0x0, symName: __ZNSt3__127__do_deallocate_handle_sizeB7v160006IJSt11align_val_tEEEvPvmDpT_, symObjAddr: 0xDC0, symBinAddr: 0x100001A3C, symSize: 0x30 }
  - { offsetInCU: 0x2E07, offset: 0x2FE8, size: 0x8, addend: 0x0, symName: __ZNSt3__127__do_deallocate_handle_sizeB7v160006IJEEEvPvmDpT_, symObjAddr: 0xDF0, symBinAddr: 0x100001A6C, symSize: 0x28 }
  - { offsetInCU: 0x2E45, offset: 0x3026, size: 0x8, addend: 0x0, symName: __ZNSt3__124__libcpp_operator_deleteB7v160006IJPvSt11align_val_tEEEvDpT_, symObjAddr: 0xE18, symBinAddr: 0x100001A94, symSize: 0x2C }
  - { offsetInCU: 0x2E8E, offset: 0x306F, size: 0x8, addend: 0x0, symName: __ZNSt3__124__libcpp_operator_deleteB7v160006IJPvEEEvDpT_, symObjAddr: 0xE44, symBinAddr: 0x100001AC0, symSize: 0x24 }
  - { offsetInCU: 0x2EC3, offset: 0x30A4, size: 0x8, addend: 0x0, symName: __ZNSt3__125__debug_db_invalidate_allB7v160006INS_6vectorI4NodeNS_9allocatorIS2_EEEEEEvPT_, symObjAddr: 0xFB4, symBinAddr: 0x100001C30, symSize: 0x10 }
  - { offsetInCU: 0x2EF4, offset: 0x30D5, size: 0x8, addend: 0x0, symName: __ZNSt3__13maxB7v160006ImEERKT_S3_S3_, symObjAddr: 0x156C, symBinAddr: 0x1000021E8, symSize: 0x2C }
  - { offsetInCU: 0x2F37, offset: 0x3118, size: 0x8, addend: 0x0, symName: __ZNSt3__13minB7v160006ImEERKT_S3_S3_, symObjAddr: 0x1598, symBinAddr: 0x100002214, symSize: 0x2C }
  - { offsetInCU: 0x3164, offset: 0x3345, size: 0x8, addend: 0x0, symName: __ZNSt3__13minB7v160006ImNS_6__lessImmEEEERKT_S5_S5_T0_, symObjAddr: 0x1624, symBinAddr: 0x1000022A0, symSize: 0x54 }
  - { offsetInCU: 0x31F9, offset: 0x33DA, size: 0x8, addend: 0x0, symName: __ZNSt3__120__throw_length_errorB7v160006EPKc, symObjAddr: 0x1700, symBinAddr: 0x10000237C, symSize: 0x64 }
  - { offsetInCU: 0x3221, offset: 0x3402, size: 0x8, addend: 0x0, symName: __ZNSt3__13maxB7v160006ImNS_6__lessImmEEEERKT_S5_S5_T0_, symObjAddr: 0x17E4, symBinAddr: 0x100002460, symSize: 0x54 }
  - { offsetInCU: 0x327B, offset: 0x345C, size: 0x8, addend: 0x0, symName: __ZNSt3__119__allocate_at_leastB7v160006INS_9allocatorI4NodeEEEENS_19__allocation_resultINS_16allocator_traitsIT_E7pointerEEERS6_m, symObjAddr: 0x1948, symBinAddr: 0x1000025C4, symSize: 0x40 }
  - { offsetInCU: 0x32BE, offset: 0x349F, size: 0x8, addend: 0x0, symName: __ZNSt3__117__libcpp_allocateB7v160006Emm, symObjAddr: 0x1ACC, symBinAddr: 0x100002748, symSize: 0x60 }
  - { offsetInCU: 0x3318, offset: 0x34F9, size: 0x8, addend: 0x0, symName: __ZNSt3__121__libcpp_operator_newB7v160006IJmSt11align_val_tEEEPvDpT_, symObjAddr: 0x1B2C, symBinAddr: 0x1000027A8, symSize: 0x2C }
  - { offsetInCU: 0x3365, offset: 0x3546, size: 0x8, addend: 0x0, symName: __ZNSt3__121__libcpp_operator_newB7v160006IJmEEEPvDpT_, symObjAddr: 0x1B58, symBinAddr: 0x1000027D4, symSize: 0x24 }
  - { offsetInCU: 0x339E, offset: 0x357F, size: 0x8, addend: 0x0, symName: __ZNSt3__142__uninitialized_allocator_move_if_noexceptB7v160006INS_9allocatorI4NodeEENS_16reverse_iteratorIPS2_EES6_S2_vEET1_RT_T0_SA_S7_, symObjAddr: 0x1BE0, symBinAddr: 0x10000285C, symSize: 0x78 }
  - { offsetInCU: 0x341B, offset: 0x35FC, size: 0x8, addend: 0x0, symName: __ZNSt3__14swapB7v160006IP4NodeEENS_9enable_ifIXaasr21is_move_constructibleIT_EE5valuesr18is_move_assignableIS4_EE5valueEvE4typeERS4_S7_, symObjAddr: 0x1CA4, symBinAddr: 0x100002920, symSize: 0x3C }
  - { offsetInCU: 0x346C, offset: 0x364D, size: 0x8, addend: 0x0, symName: __ZNSt3__14moveB7v160006INS_16reverse_iteratorIP4NodeEES4_EET0_T_S6_S5_, symObjAddr: 0x1D8C, symBinAddr: 0x100002A08, symSize: 0x78 }
  - { offsetInCU: 0x34C6, offset: 0x36A7, size: 0x8, addend: 0x0, symName: __ZNSt3__16__moveB7v160006INS_17_ClassicAlgPolicyENS_16reverse_iteratorIP4NodeEES5_S5_EENS_4pairIT0_T2_EES7_T1_S8_, symObjAddr: 0x1E04, symBinAddr: 0x100002A80, symSize: 0x64 }
  - { offsetInCU: 0x3532, offset: 0x3713, size: 0x8, addend: 0x0, symName: __ZNSt3__123__dispatch_copy_or_moveB7v160006INS_17_ClassicAlgPolicyENS_11__move_loopIS1_EENS_14__move_trivialENS_16reverse_iteratorIP4NodeEES8_S8_EENS_4pairIT2_T4_EESA_T3_SB_, symObjAddr: 0x1E68, symBinAddr: 0x100002AE4, symSize: 0x64 }
  - { offsetInCU: 0x35B0, offset: 0x3791, size: 0x8, addend: 0x0, symName: __ZNSt3__121__unwrap_and_dispatchB7v160006INS_10__overloadINS_11__move_loopINS_17_ClassicAlgPolicyEEENS_14__move_trivialEEENS_16reverse_iteratorIP4NodeEESA_SA_Li0EEENS_4pairIT0_T2_EESC_T1_SD_, symObjAddr: 0x1ECC, symBinAddr: 0x100002B48, symSize: 0x12C }
  - { offsetInCU: 0x3640, offset: 0x3821, size: 0x8, addend: 0x0, symName: __ZNSt3__114__unwrap_rangeB7v160006INS_16reverse_iteratorIP4NodeEES4_EENS_4pairIT0_S6_EET_S8_, symObjAddr: 0x1FF8, symBinAddr: 0x100002C74, symSize: 0x84 }
  - { offsetInCU: 0x37BB, offset: 0x399C, size: 0x8, addend: 0x0, symName: __ZNSt3__113__unwrap_iterB7v160006INS_16reverse_iteratorIP4NodeEENS_18__unwrap_iter_implIS4_Lb0EEELi0EEEDTclsrT0_8__unwrapclsr3stdE7declvalIT_EEEES8_, symObjAddr: 0x211C, symBinAddr: 0x100002D98, symSize: 0x44 }
  - { offsetInCU: 0x37FF, offset: 0x39E0, size: 0x8, addend: 0x0, symName: __ZNSt3__19make_pairB7v160006INS_16reverse_iteratorIP4NodeEES4_EENS_4pairINS_18__unwrap_ref_decayIT_E4typeENS6_IT0_E4typeEEEOS7_OSA_, symObjAddr: 0x2160, symBinAddr: 0x100002DDC, symSize: 0x38 }
  - { offsetInCU: 0x384E, offset: 0x3A2F, size: 0x8, addend: 0x0, symName: __ZNSt3__114__rewrap_rangeB7v160006INS_16reverse_iteratorIP4NodeEES4_EET_S5_T0_, symObjAddr: 0x2198, symBinAddr: 0x100002E14, symSize: 0x5C }
  - { offsetInCU: 0x389A, offset: 0x3A7B, size: 0x8, addend: 0x0, symName: __ZNSt3__113__rewrap_iterB7v160006INS_16reverse_iteratorIP4NodeEES4_NS_18__unwrap_iter_implIS4_Lb0EEEEET_S7_T0_, symObjAddr: 0x21F4, symBinAddr: 0x100002E70, symSize: 0x74 }
  - { offsetInCU: 0x38EF, offset: 0x3AD0, size: 0x8, addend: 0x0, symName: __ZNSt3__1neB7v160006IP4NodeS2_EEbRKNS_16reverse_iteratorIT_EERKNS3_IT0_EE, symObjAddr: 0x2268, symBinAddr: 0x100002EE4, symSize: 0x48 }
  - { offsetInCU: 0x3A20, offset: 0x3C01, size: 0x8, addend: 0x0, symName: __ZNSt3__19push_heapB7v160006INS_11__wrap_iterIP4NodeEE7compareEEvT_S6_T0_, symObjAddr: 0x2624, symBinAddr: 0x1000032A0, symSize: 0x40 }
  - { offsetInCU: 0x3A76, offset: 0x3C57, size: 0x8, addend: 0x0, symName: __ZNSt3__111__push_heapB7v160006INS_17_ClassicAlgPolicyENS_11__wrap_iterIP4NodeEE7compareEEvT0_S7_RT1_, symObjAddr: 0x2664, symBinAddr: 0x1000032E0, symSize: 0x5C }
  - { offsetInCU: 0x3AE3, offset: 0x3CC4, size: 0x8, addend: 0x0, symName: __ZNSt3__1miB7v160006IP4NodeS2_EEDTmicldtfp_4baseEcldtfp0_4baseEERKNS_11__wrap_iterIT_EERKNS4_IT0_EE, symObjAddr: 0x26C0, symBinAddr: 0x10000333C, symSize: 0x48 }
  - { offsetInCU: 0x3B2F, offset: 0x3D10, size: 0x8, addend: 0x0, symName: __ZNSt3__19__sift_upB7v160006INS_17_ClassicAlgPolicyER7compareNS_11__wrap_iterIP4NodeEEEEvT1_S8_OT0_NS_15iterator_traitsIS8_E15difference_typeE, symObjAddr: 0x2708, symBinAddr: 0x100003384, symSize: 0x160 }
  - { offsetInCU: 0x3BDF, offset: 0x3DC0, size: 0x8, addend: 0x0, symName: __ZNSt3__18pop_heapB7v160006INS_11__wrap_iterIP4NodeEE7compareEEvT_S6_T0_, symObjAddr: 0x298C, symBinAddr: 0x100003608, symSize: 0x58 }
  - { offsetInCU: 0x3C43, offset: 0x3E24, size: 0x8, addend: 0x0, symName: __ZNSt3__110__pop_heapB7v160006INS_17_ClassicAlgPolicyE7compareNS_11__wrap_iterIP4NodeEEEEvT1_S7_RT0_NS_15iterator_traitsIS7_E15difference_typeE, symObjAddr: 0x2A10, symBinAddr: 0x10000368C, symSize: 0x134 }
  - { offsetInCU: 0x3F18, offset: 0x40F9, size: 0x8, addend: 0x0, symName: __ZSt28__throw_bad_array_new_lengthB7v160006v, symObjAddr: 0x1A98, symBinAddr: 0x100002714, symSize: 0x34 }
  - { offsetInCU: 0x4145, offset: 0x4326, size: 0x8, addend: 0x0, symName: _Visited, symObjAddr: 0x31D68, symBinAddr: 0x10001F700, symSize: 0x0 }
  - { offsetInCU: 0x4167, offset: 0x4348, size: 0x8, addend: 0x0, symName: _TotalN, symObjAddr: 0x32D08, symBinAddr: 0x1000206A0, symSize: 0x0 }
  - { offsetInCU: 0x41F9, offset: 0x43DA, size: 0x8, addend: 0x0, symName: __ZNSt3__16vectorI4NodeNS_9allocatorIS1_EEE26__swap_out_circular_bufferERNS_14__split_bufferIS1_RS3_EE, symObjAddr: 0x13AC, symBinAddr: 0x100002028, symSize: 0x118 }
  - { offsetInCU: 0x63B6, offset: 0x6597, size: 0x8, addend: 0x0, symName: __ZNSt3__16vectorI4NodeNS_9allocatorIS1_EEEC1B7v160006Ev, symObjAddr: 0x0, symBinAddr: 0x100000C7C, symSize: 0x2C }
  - { offsetInCU: 0x63DE, offset: 0x65BF, size: 0x8, addend: 0x0, symName: __ZNSt3__16vectorI4NodeNS_9allocatorIS1_EEED1B7v160006Ev, symObjAddr: 0x2C, symBinAddr: 0x100000CA8, symSize: 0x2C }
  - { offsetInCU: 0x6406, offset: 0x65E7, size: 0x8, addend: 0x0, symName: __Z4initiiPiS_S_, symObjAddr: 0x58, symBinAddr: 0x100000CD4, symSize: 0x118 }
  - { offsetInCU: 0x649E, offset: 0x667F, size: 0x8, addend: 0x0, symName: __ZNSt3__16vectorI4NodeNS_9allocatorIS1_EEE5clearB7v160006Ev, symObjAddr: 0x170, symBinAddr: 0x100000DEC, symSize: 0x54 }
  - { offsetInCU: 0x64D1, offset: 0x66B2, size: 0x8, addend: 0x0, symName: __ZNSt3__16vectorI4NodeNS_9allocatorIS1_EEE9push_backB7v160006EOS1_, symObjAddr: 0x1C4, symBinAddr: 0x100000E40, symSize: 0x6C }
  - { offsetInCU: 0x6506, offset: 0x66E7, size: 0x8, addend: 0x0, symName: __Z3addiii, symObjAddr: 0x230, symBinAddr: 0x100000EAC, symSize: 0x54 }
  - { offsetInCU: 0x654A, offset: 0x672B, size: 0x8, addend: 0x0, symName: __Z3bfsii, symObjAddr: 0x284, symBinAddr: 0x100000F00, symSize: 0x208 }
  - { offsetInCU: 0x6673, offset: 0x6854, size: 0x8, addend: 0x0, symName: __ZNSt3__114priority_queueI4NodeNS_6vectorIS1_NS_9allocatorIS1_EEEE7compareEC1B7v160006Ev, symObjAddr: 0x48C, symBinAddr: 0x100001108, symSize: 0x2C }
  - { offsetInCU: 0x669B, offset: 0x687C, size: 0x8, addend: 0x0, symName: __ZNSt3__114priority_queueI4NodeNS_6vectorIS1_NS_9allocatorIS1_EEEE7compareE4pushEOS1_, symObjAddr: 0x4B8, symBinAddr: 0x100001134, symSize: 0x58 }
  - { offsetInCU: 0x66D0, offset: 0x68B1, size: 0x8, addend: 0x0, symName: __ZNKSt3__114priority_queueI4NodeNS_6vectorIS1_NS_9allocatorIS1_EEEE7compareE5emptyB7v160006Ev, symObjAddr: 0x510, symBinAddr: 0x10000118C, symSize: 0x28 }
  - { offsetInCU: 0x66F4, offset: 0x68D5, size: 0x8, addend: 0x0, symName: __ZNKSt3__114priority_queueI4NodeNS_6vectorIS1_NS_9allocatorIS1_EEEE7compareE3topB7v160006Ev, symObjAddr: 0x538, symBinAddr: 0x1000011B4, symSize: 0x24 }
  - { offsetInCU: 0x6718, offset: 0x68F9, size: 0x8, addend: 0x0, symName: __ZNSt3__114priority_queueI4NodeNS_6vectorIS1_NS_9allocatorIS1_EEEE7compareE3popEv, symObjAddr: 0x55C, symBinAddr: 0x1000011D8, symSize: 0x50 }
  - { offsetInCU: 0x673E, offset: 0x691F, size: 0x8, addend: 0x0, symName: __ZNSt3__16vectorI4NodeNS_9allocatorIS1_EEE5beginB7v160006Ev, symObjAddr: 0x5AC, symBinAddr: 0x100001228, symSize: 0x30 }
  - { offsetInCU: 0x6764, offset: 0x6945, size: 0x8, addend: 0x0, symName: __ZNSt3__16vectorI4NodeNS_9allocatorIS1_EEE3endB7v160006Ev, symObjAddr: 0x5DC, symBinAddr: 0x100001258, symSize: 0x30 }
  - { offsetInCU: 0x678A, offset: 0x696B, size: 0x8, addend: 0x0, symName: __ZNKSt3__111__wrap_iterIP4NodeEdeB7v160006Ev, symObjAddr: 0x640, symBinAddr: 0x1000012BC, symSize: 0x18 }
  - { offsetInCU: 0x67AE, offset: 0x698F, size: 0x8, addend: 0x0, symName: __ZNSt3__111__wrap_iterIP4NodeEppB7v160006Ev, symObjAddr: 0x658, symBinAddr: 0x1000012D4, symSize: 0x20 }
  - { offsetInCU: 0x67D2, offset: 0x69B3, size: 0x8, addend: 0x0, symName: __ZNSt3__114priority_queueI4NodeNS_6vectorIS1_NS_9allocatorIS1_EEEE7compareED1Ev, symObjAddr: 0x678, symBinAddr: 0x1000012F4, symSize: 0x2C }
  - { offsetInCU: 0x67FD, offset: 0x69DE, size: 0x8, addend: 0x0, symName: __Z9calculateii, symObjAddr: 0x6A4, symBinAddr: 0x100001320, symSize: 0x48 }
  - { offsetInCU: 0x6845, offset: 0x6A26, size: 0x8, addend: 0x0, symName: __ZNKSt3__111__wrap_iterIP4NodeE4baseB7v160006Ev, symObjAddr: 0x734, symBinAddr: 0x1000013B0, symSize: 0x18 }
  - { offsetInCU: 0x6869, offset: 0x6A4A, size: 0x8, addend: 0x0, symName: __ZNSt3__114priority_queueI4NodeNS_6vectorIS1_NS_9allocatorIS1_EEEE7compareED2Ev, symObjAddr: 0x74C, symBinAddr: 0x1000013C8, symSize: 0x2C }
  - { offsetInCU: 0x6894, offset: 0x6A75, size: 0x8, addend: 0x0, symName: __ZNSt3__16vectorI4NodeNS_9allocatorIS1_EEEC2B7v160006Ev, symObjAddr: 0x778, symBinAddr: 0x1000013F4, symSize: 0x58 }
  - { offsetInCU: 0x68C6, offset: 0x6AA7, size: 0x8, addend: 0x0, symName: __ZNSt3__117__compressed_pairIP4NodeNS_9allocatorIS1_EEEC1B7v160006IDnNS_18__default_init_tagEEEOT_OT0_, symObjAddr: 0x7D0, symBinAddr: 0x10000144C, symSize: 0x3C }
  - { offsetInCU: 0x691C, offset: 0x6AFD, size: 0x8, addend: 0x0, symName: __ZNSt3__117__compressed_pairIP4NodeNS_9allocatorIS1_EEEC2B7v160006IDnNS_18__default_init_tagEEEOT_OT0_, symObjAddr: 0x828, symBinAddr: 0x1000014A4, symSize: 0x40 }
  - { offsetInCU: 0x6972, offset: 0x6B53, size: 0x8, addend: 0x0, symName: __ZNSt3__122__compressed_pair_elemIP4NodeLi0ELb0EEC2B7v160006IDnvEEOT_, symObjAddr: 0x868, symBinAddr: 0x1000014E4, symSize: 0x1C }
  - { offsetInCU: 0x69B2, offset: 0x6B93, size: 0x8, addend: 0x0, symName: __ZNSt3__122__compressed_pair_elemINS_9allocatorI4NodeEELi1ELb1EEC2B7v160006ENS_18__default_init_tagE, symObjAddr: 0x884, symBinAddr: 0x100001500, symSize: 0x2C }
  - { offsetInCU: 0x69E4, offset: 0x6BC5, size: 0x8, addend: 0x0, symName: __ZNSt3__19allocatorI4NodeEC2B7v160006Ev, symObjAddr: 0x8B0, symBinAddr: 0x10000152C, symSize: 0x2C }
  - { offsetInCU: 0x6A0C, offset: 0x6BED, size: 0x8, addend: 0x0, symName: __ZNSt3__116__non_trivial_ifILb1ENS_9allocatorI4NodeEEEC2B7v160006Ev, symObjAddr: 0x8DC, symBinAddr: 0x100001558, symSize: 0x14 }
  - { offsetInCU: 0x6A34, offset: 0x6C15, size: 0x8, addend: 0x0, symName: __ZNSt3__16vectorI4NodeNS_9allocatorIS1_EEED2B7v160006Ev, symObjAddr: 0x8F0, symBinAddr: 0x10000156C, symSize: 0x44 }
  - { offsetInCU: 0x6A5C, offset: 0x6C3D, size: 0x8, addend: 0x0, symName: __ZNSt3__16vectorI4NodeNS_9allocatorIS1_EEE16__destroy_vectorC1ERS4_, symObjAddr: 0x934, symBinAddr: 0x1000015B0, symSize: 0x34 }
  - { offsetInCU: 0x6A93, offset: 0x6C74, size: 0x8, addend: 0x0, symName: __ZNSt3__16vectorI4NodeNS_9allocatorIS1_EEE16__destroy_vectorclB7v160006Ev, symObjAddr: 0x968, symBinAddr: 0x1000015E4, symSize: 0x9C }
  - { offsetInCU: 0x6AB7, offset: 0x6C98, size: 0x8, addend: 0x0, symName: __ZNSt3__16vectorI4NodeNS_9allocatorIS1_EEE16__destroy_vectorC2ERS4_, symObjAddr: 0xA04, symBinAddr: 0x100001680, symSize: 0x20 }
  - { offsetInCU: 0x6AEE, offset: 0x6CCF, size: 0x8, addend: 0x0, symName: __ZNKSt3__16vectorI4NodeNS_9allocatorIS1_EEE17__annotate_deleteB7v160006Ev, symObjAddr: 0xA24, symBinAddr: 0x1000016A0, symSize: 0xB8 }
  - { offsetInCU: 0x6B12, offset: 0x6CF3, size: 0x8, addend: 0x0, symName: __ZNSt3__16vectorI4NodeNS_9allocatorIS1_EEE7__clearB7v160006Ev, symObjAddr: 0xAEC, symBinAddr: 0x100001768, symSize: 0x28 }
  - { offsetInCU: 0x6B37, offset: 0x6D18, size: 0x8, addend: 0x0, symName: __ZNSt3__116allocator_traitsINS_9allocatorI4NodeEEE10deallocateB7v160006ERS3_PS2_m, symObjAddr: 0xB14, symBinAddr: 0x100001790, symSize: 0x34 }
  - { offsetInCU: 0x6B78, offset: 0x6D59, size: 0x8, addend: 0x0, symName: __ZNSt3__16vectorI4NodeNS_9allocatorIS1_EEE7__allocB7v160006Ev, symObjAddr: 0xB48, symBinAddr: 0x1000017C4, symSize: 0x28 }
  - { offsetInCU: 0x6B9C, offset: 0x6D7D, size: 0x8, addend: 0x0, symName: __ZNKSt3__16vectorI4NodeNS_9allocatorIS1_EEE8capacityB7v160006Ev, symObjAddr: 0xB70, symBinAddr: 0x1000017EC, symSize: 0x40 }
  - { offsetInCU: 0x6BC0, offset: 0x6DA1, size: 0x8, addend: 0x0, symName: __ZNKSt3__16vectorI4NodeNS_9allocatorIS1_EEE31__annotate_contiguous_containerB7v160006EPKvS6_S6_S6_, symObjAddr: 0xBB0, symBinAddr: 0x10000182C, symSize: 0x20 }
  - { offsetInCU: 0x6C10, offset: 0x6DF1, size: 0x8, addend: 0x0, symName: __ZNKSt3__16vectorI4NodeNS_9allocatorIS1_EEE4dataB7v160006Ev, symObjAddr: 0xBD0, symBinAddr: 0x10000184C, symSize: 0x28 }
  - { offsetInCU: 0x6C34, offset: 0x6E15, size: 0x8, addend: 0x0, symName: __ZNKSt3__16vectorI4NodeNS_9allocatorIS1_EEE4sizeB7v160006Ev, symObjAddr: 0xBF8, symBinAddr: 0x100001874, symSize: 0x28 }
  - { offsetInCU: 0x6C58, offset: 0x6E39, size: 0x8, addend: 0x0, symName: __ZNSt3__16vectorI4NodeNS_9allocatorIS1_EEE22__base_destruct_at_endB7v160006EPS1_, symObjAddr: 0xC34, symBinAddr: 0x1000018B0, symSize: 0x8C }
  - { offsetInCU: 0x6C9B, offset: 0x6E7C, size: 0x8, addend: 0x0, symName: __ZNSt3__116allocator_traitsINS_9allocatorI4NodeEEE7destroyB7v160006IS2_vEEvRS3_PT_, symObjAddr: 0xCC0, symBinAddr: 0x10000193C, symSize: 0x2C }
  - { offsetInCU: 0x6CD7, offset: 0x6EB8, size: 0x8, addend: 0x0, symName: __ZNSt3__19allocatorI4NodeE7destroyB7v160006EPS1_, symObjAddr: 0xCEC, symBinAddr: 0x100001968, symSize: 0x14 }
  - { offsetInCU: 0x6D09, offset: 0x6EEA, size: 0x8, addend: 0x0, symName: __ZNSt3__19allocatorI4NodeE10deallocateB7v160006EPS1_m, symObjAddr: 0xD00, symBinAddr: 0x10000197C, symSize: 0x40 }
  - { offsetInCU: 0x6D49, offset: 0x6F2A, size: 0x8, addend: 0x0, symName: __ZNSt3__117__compressed_pairIP4NodeNS_9allocatorIS1_EEE6secondB7v160006Ev, symObjAddr: 0xE68, symBinAddr: 0x100001AE4, symSize: 0x24 }
  - { offsetInCU: 0x6D6D, offset: 0x6F4E, size: 0x8, addend: 0x0, symName: __ZNSt3__122__compressed_pair_elemINS_9allocatorI4NodeEELi1ELb1EE5__getB7v160006Ev, symObjAddr: 0xE8C, symBinAddr: 0x100001B08, symSize: 0x14 }
  - { offsetInCU: 0x6D91, offset: 0x6F72, size: 0x8, addend: 0x0, symName: __ZNKSt3__16vectorI4NodeNS_9allocatorIS1_EEE9__end_capB7v160006Ev, symObjAddr: 0xEA0, symBinAddr: 0x100001B1C, symSize: 0x28 }
  - { offsetInCU: 0x6DB5, offset: 0x6F96, size: 0x8, addend: 0x0, symName: __ZNKSt3__117__compressed_pairIP4NodeNS_9allocatorIS1_EEE5firstB7v160006Ev, symObjAddr: 0xEC8, symBinAddr: 0x100001B44, symSize: 0x24 }
  - { offsetInCU: 0x6DD9, offset: 0x6FBA, size: 0x8, addend: 0x0, symName: __ZNKSt3__122__compressed_pair_elemIP4NodeLi0ELb0EE5__getB7v160006Ev, symObjAddr: 0xEEC, symBinAddr: 0x100001B68, symSize: 0x14 }
  - { offsetInCU: 0x6DFD, offset: 0x6FDE, size: 0x8, addend: 0x0, symName: __ZNKSt3__16vectorI4NodeNS_9allocatorIS1_EEE17__annotate_shrinkB7v160006Em, symObjAddr: 0xF00, symBinAddr: 0x100001B7C, symSize: 0xB4 }
  - { offsetInCU: 0x6E30, offset: 0x7011, size: 0x8, addend: 0x0, symName: __ZNSt3__16vectorI4NodeNS_9allocatorIS1_EEE9__end_capB7v160006Ev, symObjAddr: 0xFC4, symBinAddr: 0x100001C40, symSize: 0x28 }
  - { offsetInCU: 0x6E59, offset: 0x703A, size: 0x8, addend: 0x0, symName: __ZNSt3__16vectorI4NodeNS_9allocatorIS1_EEE22__construct_one_at_endB7v160006IJS1_EEEvDpOT_, symObjAddr: 0xFEC, symBinAddr: 0x100001C68, symSize: 0x90 }
  - { offsetInCU: 0x6EA6, offset: 0x7087, size: 0x8, addend: 0x0, symName: __ZNSt3__16vectorI4NodeNS_9allocatorIS1_EEE21__push_back_slow_pathIS1_EEvOT_, symObjAddr: 0x107C, symBinAddr: 0x100001CF8, symSize: 0xD8 }
  - { offsetInCU: 0x6F02, offset: 0x70E3, size: 0x8, addend: 0x0, symName: __ZNSt3__117__compressed_pairIP4NodeNS_9allocatorIS1_EEE5firstB7v160006Ev, symObjAddr: 0x1154, symBinAddr: 0x100001DD0, symSize: 0x24 }
  - { offsetInCU: 0x6F26, offset: 0x7107, size: 0x8, addend: 0x0, symName: __ZNSt3__122__compressed_pair_elemIP4NodeLi0ELb0EE5__getB7v160006Ev, symObjAddr: 0x1178, symBinAddr: 0x100001DF4, symSize: 0x14 }
  - { offsetInCU: 0x6F63, offset: 0x7144, size: 0x8, addend: 0x0, symName: __ZNSt3__16vectorI4NodeNS_9allocatorIS1_EEE21_ConstructTransactionC1B7v160006ERS4_m, symObjAddr: 0x118C, symBinAddr: 0x100001E08, symSize: 0x3C }
  - { offsetInCU: 0x6FAA, offset: 0x718B, size: 0x8, addend: 0x0, symName: __ZNSt3__116allocator_traitsINS_9allocatorI4NodeEEE9constructB7v160006IS2_JS2_EvEEvRS3_PT_DpOT0_, symObjAddr: 0x11C8, symBinAddr: 0x100001E44, symSize: 0x34 }
  - { offsetInCU: 0x7000, offset: 0x71E1, size: 0x8, addend: 0x0, symName: __ZNSt3__16vectorI4NodeNS_9allocatorIS1_EEE21_ConstructTransactionD1B7v160006Ev, symObjAddr: 0x11FC, symBinAddr: 0x100001E78, symSize: 0x2C }
  - { offsetInCU: 0x7028, offset: 0x7209, size: 0x8, addend: 0x0, symName: __ZNSt3__16vectorI4NodeNS_9allocatorIS1_EEE21_ConstructTransactionC2B7v160006ERS4_m, symObjAddr: 0x1228, symBinAddr: 0x100001EA4, symSize: 0x44 }
  - { offsetInCU: 0x706E, offset: 0x724F, size: 0x8, addend: 0x0, symName: __ZNSt3__19allocatorI4NodeE9constructB7v160006IS1_JS1_EEEvPT_DpOT0_, symObjAddr: 0x126C, symBinAddr: 0x100001EE8, symSize: 0x28 }
  - { offsetInCU: 0x70C2, offset: 0x72A3, size: 0x8, addend: 0x0, symName: __ZNSt3__16vectorI4NodeNS_9allocatorIS1_EEE21_ConstructTransactionD2B7v160006Ev, symObjAddr: 0x1294, symBinAddr: 0x100001F10, symSize: 0x20 }
  - { offsetInCU: 0x70EA, offset: 0x72CB, size: 0x8, addend: 0x0, symName: __ZNKSt3__16vectorI4NodeNS_9allocatorIS1_EEE11__recommendB7v160006Em, symObjAddr: 0x12B4, symBinAddr: 0x100001F30, symSize: 0xB4 }
  - { offsetInCU: 0x713E, offset: 0x731F, size: 0x8, addend: 0x0, symName: __ZNSt3__114__split_bufferI4NodeRNS_9allocatorIS1_EEEC1EmmS4_, symObjAddr: 0x1368, symBinAddr: 0x100001FE4, symSize: 0x44 }
  - { offsetInCU: 0x7193, offset: 0x7374, size: 0x8, addend: 0x0, symName: __ZNSt3__114__split_bufferI4NodeRNS_9allocatorIS1_EEED1Ev, symObjAddr: 0x14C4, symBinAddr: 0x100002140, symSize: 0x2C }
  - { offsetInCU: 0x71BD, offset: 0x739E, size: 0x8, addend: 0x0, symName: __ZNKSt3__16vectorI4NodeNS_9allocatorIS1_EEE8max_sizeEv, symObjAddr: 0x14F0, symBinAddr: 0x10000216C, symSize: 0x60 }
  - { offsetInCU: 0x71E3, offset: 0x73C4, size: 0x8, addend: 0x0, symName: __ZNKSt3__16vectorI4NodeNS_9allocatorIS1_EEE20__throw_length_errorB7v160006Ev, symObjAddr: 0x1550, symBinAddr: 0x1000021CC, symSize: 0x1C }
  - { offsetInCU: 0x7212, offset: 0x73F3, size: 0x8, addend: 0x0, symName: __ZNSt3__116allocator_traitsINS_9allocatorI4NodeEEE8max_sizeB7v160006IS3_vEEmRKS3_, symObjAddr: 0x15C4, symBinAddr: 0x100002240, symSize: 0x24 }
  - { offsetInCU: 0x723F, offset: 0x7420, size: 0x8, addend: 0x0, symName: __ZNKSt3__16vectorI4NodeNS_9allocatorIS1_EEE7__allocB7v160006Ev, symObjAddr: 0x15E8, symBinAddr: 0x100002264, symSize: 0x28 }
  - { offsetInCU: 0x7264, offset: 0x7445, size: 0x8, addend: 0x0, symName: __ZNSt3__114numeric_limitsIlE3maxB7v160006Ev, symObjAddr: 0x1610, symBinAddr: 0x10000228C, symSize: 0x14 }
  - { offsetInCU: 0x728B, offset: 0x746C, size: 0x8, addend: 0x0, symName: __ZNKSt3__16__lessImmEclB7v160006ERKmS3_, symObjAddr: 0x1678, symBinAddr: 0x1000022F4, symSize: 0x34 }
  - { offsetInCU: 0x72CB, offset: 0x74AC, size: 0x8, addend: 0x0, symName: __ZNKSt3__19allocatorI4NodeE8max_sizeB7v160006Ev, symObjAddr: 0x16AC, symBinAddr: 0x100002328, symSize: 0x14 }
  - { offsetInCU: 0x72EF, offset: 0x74D0, size: 0x8, addend: 0x0, symName: __ZNKSt3__117__compressed_pairIP4NodeNS_9allocatorIS1_EEE6secondB7v160006Ev, symObjAddr: 0x16C0, symBinAddr: 0x10000233C, symSize: 0x24 }
  - { offsetInCU: 0x7313, offset: 0x74F4, size: 0x8, addend: 0x0, symName: __ZNKSt3__122__compressed_pair_elemINS_9allocatorI4NodeEELi1ELb1EE5__getB7v160006Ev, symObjAddr: 0x16E4, symBinAddr: 0x100002360, symSize: 0x14 }
  - { offsetInCU: 0x7338, offset: 0x7519, size: 0x8, addend: 0x0, symName: __ZNSt3__123__libcpp_numeric_limitsIlLb1EE3maxB7v160006Ev, symObjAddr: 0x16F8, symBinAddr: 0x100002374, symSize: 0x8 }
  - { offsetInCU: 0x734B, offset: 0x752C, size: 0x8, addend: 0x0, symName: __ZNSt12length_errorC1B7v160006EPKc, symObjAddr: 0x1764, symBinAddr: 0x1000023E0, symSize: 0x34 }
  - { offsetInCU: 0x7381, offset: 0x7562, size: 0x8, addend: 0x0, symName: __ZNSt12length_errorC2B7v160006EPKc, symObjAddr: 0x1798, symBinAddr: 0x100002414, symSize: 0x4C }
  - { offsetInCU: 0x73B8, offset: 0x7599, size: 0x8, addend: 0x0, symName: __ZNSt3__114__split_bufferI4NodeRNS_9allocatorIS1_EEEC2EmmS4_, symObjAddr: 0x1838, symBinAddr: 0x1000024B4, symSize: 0xD4 }
  - { offsetInCU: 0x7429, offset: 0x760A, size: 0x8, addend: 0x0, symName: __ZNSt3__117__compressed_pairIP4NodeRNS_9allocatorIS1_EEEC1B7v160006IDnS5_EEOT_OT0_, symObjAddr: 0x190C, symBinAddr: 0x100002588, symSize: 0x3C }
  - { offsetInCU: 0x747F, offset: 0x7660, size: 0x8, addend: 0x0, symName: __ZNSt3__114__split_bufferI4NodeRNS_9allocatorIS1_EEE7__allocB7v160006Ev, symObjAddr: 0x1988, symBinAddr: 0x100002604, symSize: 0x28 }
  - { offsetInCU: 0x74A3, offset: 0x7684, size: 0x8, addend: 0x0, symName: __ZNSt3__114__split_bufferI4NodeRNS_9allocatorIS1_EEE9__end_capB7v160006Ev, symObjAddr: 0x19B0, symBinAddr: 0x10000262C, symSize: 0x28 }
  - { offsetInCU: 0x74C7, offset: 0x76A8, size: 0x8, addend: 0x0, symName: __ZNSt3__117__compressed_pairIP4NodeRNS_9allocatorIS1_EEEC2B7v160006IDnS5_EEOT_OT0_, symObjAddr: 0x19D8, symBinAddr: 0x100002654, symSize: 0x48 }
  - { offsetInCU: 0x751D, offset: 0x76FE, size: 0x8, addend: 0x0, symName: __ZNSt3__122__compressed_pair_elemIRNS_9allocatorI4NodeEELi1ELb0EEC2B7v160006IS4_vEEOT_, symObjAddr: 0x1A20, symBinAddr: 0x10000269C, symSize: 0x20 }
  - { offsetInCU: 0x755D, offset: 0x773E, size: 0x8, addend: 0x0, symName: __ZNSt3__19allocatorI4NodeE8allocateB7v160006Em, symObjAddr: 0x1A40, symBinAddr: 0x1000026BC, symSize: 0x58 }
  - { offsetInCU: 0x758F, offset: 0x7770, size: 0x8, addend: 0x0, symName: __ZNSt3__117__compressed_pairIP4NodeRNS_9allocatorIS1_EEE6secondB7v160006Ev, symObjAddr: 0x1B7C, symBinAddr: 0x1000027F8, symSize: 0x28 }
  - { offsetInCU: 0x75B3, offset: 0x7794, size: 0x8, addend: 0x0, symName: __ZNSt3__122__compressed_pair_elemIRNS_9allocatorI4NodeEELi1ELb0EE5__getB7v160006Ev, symObjAddr: 0x1BA4, symBinAddr: 0x100002820, symSize: 0x18 }
  - { offsetInCU: 0x75D7, offset: 0x77B8, size: 0x8, addend: 0x0, symName: __ZNSt3__117__compressed_pairIP4NodeRNS_9allocatorIS1_EEE5firstB7v160006Ev, symObjAddr: 0x1BBC, symBinAddr: 0x100002838, symSize: 0x24 }
  - { offsetInCU: 0x75FB, offset: 0x77DC, size: 0x8, addend: 0x0, symName: __ZNSt3__116reverse_iteratorIP4NodeEC1B7v160006ES2_, symObjAddr: 0x1C58, symBinAddr: 0x1000028D4, symSize: 0x34 }
  - { offsetInCU: 0x7631, offset: 0x7812, size: 0x8, addend: 0x0, symName: __ZNKSt3__116reverse_iteratorIP4NodeE4baseB7v160006Ev, symObjAddr: 0x1C8C, symBinAddr: 0x100002908, symSize: 0x18 }
  - { offsetInCU: 0x7655, offset: 0x7836, size: 0x8, addend: 0x0, symName: __ZNKSt3__16vectorI4NodeNS_9allocatorIS1_EEE14__annotate_newB7v160006Em, symObjAddr: 0x1CE0, symBinAddr: 0x10000295C, symSize: 0xAC }
  - { offsetInCU: 0x76AB, offset: 0x788C, size: 0x8, addend: 0x0, symName: __ZNKSt3__111__move_loopINS_17_ClassicAlgPolicyEEclB7v160006INS_16reverse_iteratorIP4NodeEES7_S7_EENS_4pairIT_T1_EES9_T0_SA_, symObjAddr: 0x207C, symBinAddr: 0x100002CF8, symSize: 0xA0 }
  - { offsetInCU: 0x7715, offset: 0x78F6, size: 0x8, addend: 0x0, symName: __ZNSt3__18_IterOpsINS_17_ClassicAlgPolicyEE11__iter_moveB7v160006IRNS_16reverse_iteratorIP4NodeEEEENS_9enable_ifIXsr12is_referenceIDTdeclsr3stdE7declvalIRT_EEEEE5valueEDTclsr3stdE4movedeclsr3stdE7declvalISB_EEEEE4typeEOSA_, symObjAddr: 0x22B0, symBinAddr: 0x100002F2C, symSize: 0x28 }
  - { offsetInCU: 0x7740, offset: 0x7921, size: 0x8, addend: 0x0, symName: __ZNKSt3__116reverse_iteratorIP4NodeEdeB7v160006Ev, symObjAddr: 0x22D8, symBinAddr: 0x100002F54, symSize: 0x28 }
  - { offsetInCU: 0x7772, offset: 0x7953, size: 0x8, addend: 0x0, symName: __ZNSt3__116reverse_iteratorIP4NodeEppB7v160006Ev, symObjAddr: 0x2300, symBinAddr: 0x100002F7C, symSize: 0x20 }
  - { offsetInCU: 0x7797, offset: 0x7978, size: 0x8, addend: 0x0, symName: __ZNSt3__18_IterOpsINS_17_ClassicAlgPolicyEE25__validate_iter_referenceB7v160006IRNS_16reverse_iteratorIP4NodeEEEEvv, symObjAddr: 0x2320, symBinAddr: 0x100002F9C, symSize: 0x4 }
  - { offsetInCU: 0x77B5, offset: 0x7996, size: 0x8, addend: 0x0, symName: __ZNSt3__118__unwrap_iter_implINS_16reverse_iteratorIP4NodeEELb0EE8__unwrapB7v160006ES4_, symObjAddr: 0x2324, symBinAddr: 0x100002FA0, symSize: 0x24 }
  - { offsetInCU: 0x77DC, offset: 0x79BD, size: 0x8, addend: 0x0, symName: __ZNSt3__14pairINS_16reverse_iteratorIP4NodeEES4_EC1B7v160006IS4_S4_LPv0EEEOT_OT0_, symObjAddr: 0x2348, symBinAddr: 0x100002FC4, symSize: 0x3C }
  - { offsetInCU: 0x7838, offset: 0x7A19, size: 0x8, addend: 0x0, symName: __ZNSt3__14pairINS_16reverse_iteratorIP4NodeEES4_EC2B7v160006IS4_S4_LPv0EEEOT_OT0_, symObjAddr: 0x2384, symBinAddr: 0x100003000, symSize: 0x34 }
  - { offsetInCU: 0x7895, offset: 0x7A76, size: 0x8, addend: 0x0, symName: __ZNSt3__118__unwrap_iter_implINS_16reverse_iteratorIP4NodeEELb0EE8__rewrapB7v160006ES4_S4_, symObjAddr: 0x23B8, symBinAddr: 0x100003034, symSize: 0x2C }
  - { offsetInCU: 0x78C1, offset: 0x7AA2, size: 0x8, addend: 0x0, symName: __ZNSt3__116reverse_iteratorIP4NodeEC2B7v160006ES2_, symObjAddr: 0x23E4, symBinAddr: 0x100003060, symSize: 0x28 }
  - { offsetInCU: 0x78F8, offset: 0x7AD9, size: 0x8, addend: 0x0, symName: __ZNSt3__114__split_bufferI4NodeRNS_9allocatorIS1_EEED2Ev, symObjAddr: 0x240C, symBinAddr: 0x100003088, symSize: 0x8C }
  - { offsetInCU: 0x7922, offset: 0x7B03, size: 0x8, addend: 0x0, symName: __ZNSt3__114__split_bufferI4NodeRNS_9allocatorIS1_EEE5clearB7v160006Ev, symObjAddr: 0x2498, symBinAddr: 0x100003114, symSize: 0x28 }
  - { offsetInCU: 0x7946, offset: 0x7B27, size: 0x8, addend: 0x0, symName: __ZNKSt3__114__split_bufferI4NodeRNS_9allocatorIS1_EEE8capacityB7v160006Ev, symObjAddr: 0x24C0, symBinAddr: 0x10000313C, symSize: 0x40 }
  - { offsetInCU: 0x796A, offset: 0x7B4B, size: 0x8, addend: 0x0, symName: __ZNSt3__114__split_bufferI4NodeRNS_9allocatorIS1_EEE17__destruct_at_endB7v160006EPS1_, symObjAddr: 0x2500, symBinAddr: 0x10000317C, symSize: 0x2C }
  - { offsetInCU: 0x799C, offset: 0x7B7D, size: 0x8, addend: 0x0, symName: __ZNSt3__114__split_bufferI4NodeRNS_9allocatorIS1_EEE17__destruct_at_endB7v160006EPS1_NS_17integral_constantIbLb0EEE, symObjAddr: 0x252C, symBinAddr: 0x1000031A8, symSize: 0x80 }
  - { offsetInCU: 0x79DA, offset: 0x7BBB, size: 0x8, addend: 0x0, symName: __ZNKSt3__114__split_bufferI4NodeRNS_9allocatorIS1_EEE9__end_capB7v160006Ev, symObjAddr: 0x25AC, symBinAddr: 0x100003228, symSize: 0x28 }
  - { offsetInCU: 0x79FE, offset: 0x7BDF, size: 0x8, addend: 0x0, symName: __ZNKSt3__117__compressed_pairIP4NodeRNS_9allocatorIS1_EEE5firstB7v160006Ev, symObjAddr: 0x25D4, symBinAddr: 0x100003250, symSize: 0x24 }
  - { offsetInCU: 0x7A22, offset: 0x7C03, size: 0x8, addend: 0x0, symName: __ZNSt3__114priority_queueI4NodeNS_6vectorIS1_NS_9allocatorIS1_EEEE7compareEC2B7v160006Ev, symObjAddr: 0x25F8, symBinAddr: 0x100003274, symSize: 0x2C }
  - { offsetInCU: 0x7A4A, offset: 0x7C2B, size: 0x8, addend: 0x0, symName: __ZNKSt3__111__wrap_iterIP4NodeEplB7v160006El, symObjAddr: 0x2868, symBinAddr: 0x1000034E4, symSize: 0x3C }
  - { offsetInCU: 0x7A8A, offset: 0x7C6B, size: 0x8, addend: 0x0, symName: __ZN7compareclER4NodeS1_, symObjAddr: 0x28A4, symBinAddr: 0x100003520, symSize: 0x34 }
  - { offsetInCU: 0x7ACA, offset: 0x7CAB, size: 0x8, addend: 0x0, symName: __ZNSt3__111__wrap_iterIP4NodeEmmB7v160006Ev, symObjAddr: 0x28D8, symBinAddr: 0x100003554, symSize: 0x20 }
  - { offsetInCU: 0x7AEF, offset: 0x7CD0, size: 0x8, addend: 0x0, symName: __ZNSt3__18_IterOpsINS_17_ClassicAlgPolicyEE11__iter_moveB7v160006IRNS_11__wrap_iterIP4NodeEEEENS_9enable_ifIXsr12is_referenceIDTdeclsr3stdE7declvalIRT_EEEEE5valueEDTclsr3stdE4movedeclsr3stdE7declvalISB_EEEEE4typeEOSA_, symObjAddr: 0x28F8, symBinAddr: 0x100003574, symSize: 0x28 }
  - { offsetInCU: 0x7B1A, offset: 0x7CFB, size: 0x8, addend: 0x0, symName: __ZNSt3__111__wrap_iterIP4NodeEpLB7v160006El, symObjAddr: 0x2920, symBinAddr: 0x10000359C, symSize: 0x28 }
  - { offsetInCU: 0x7B4D, offset: 0x7D2E, size: 0x8, addend: 0x0, symName: __ZNSt3__18_IterOpsINS_17_ClassicAlgPolicyEE25__validate_iter_referenceB7v160006IRNS_11__wrap_iterIP4NodeEEEEvv, symObjAddr: 0x2948, symBinAddr: 0x1000035C4, symSize: 0x4 }
  - { offsetInCU: 0x7B6A, offset: 0x7D4B, size: 0x8, addend: 0x0, symName: __ZNKSt3__16vectorI4NodeNS_9allocatorIS1_EEE5emptyB7v160006Ev, symObjAddr: 0x294C, symBinAddr: 0x1000035C8, symSize: 0x28 }
  - { offsetInCU: 0x7B8E, offset: 0x7D6F, size: 0x8, addend: 0x0, symName: __ZNKSt3__16vectorI4NodeNS_9allocatorIS1_EEE5frontB7v160006Ev, symObjAddr: 0x2974, symBinAddr: 0x1000035F0, symSize: 0x18 }
  - { offsetInCU: 0x7BB2, offset: 0x7D93, size: 0x8, addend: 0x0, symName: __ZNSt3__16vectorI4NodeNS_9allocatorIS1_EEE8pop_backEv, symObjAddr: 0x29E4, symBinAddr: 0x100003660, symSize: 0x2C }
  - { offsetInCU: 0x7BD8, offset: 0x7DB9, size: 0x8, addend: 0x0, symName: __ZNSt3__16vectorI4NodeNS_9allocatorIS1_EEE17__destruct_at_endB7v160006EPS1_, symObjAddr: 0x2C90, symBinAddr: 0x10000390C, symSize: 0x60 }
  - { offsetInCU: 0x7C1B, offset: 0x7DFC, size: 0x8, addend: 0x0, symName: __ZNSt3__16vectorI4NodeNS_9allocatorIS1_EEE27__invalidate_iterators_pastB7v160006EPS1_, symObjAddr: 0x2CF0, symBinAddr: 0x10000396C, symSize: 0x14 }
  - { offsetInCU: 0x7C50, offset: 0x7E31, size: 0x8, addend: 0x0, symName: __ZNSt3__16vectorI4NodeNS_9allocatorIS1_EEE11__make_iterB7v160006EPS1_, symObjAddr: 0x2D04, symBinAddr: 0x100003980, symSize: 0x34 }
  - { offsetInCU: 0x7C83, offset: 0x7E64, size: 0x8, addend: 0x0, symName: __ZNSt3__111__wrap_iterIP4NodeEC1B7v160006EPKvS2_, symObjAddr: 0x2D38, symBinAddr: 0x1000039B4, symSize: 0x3C }
  - { offsetInCU: 0x7CC7, offset: 0x7EA8, size: 0x8, addend: 0x0, symName: __ZNSt3__111__wrap_iterIP4NodeEC2B7v160006EPKvS2_, symObjAddr: 0x2D74, symBinAddr: 0x1000039F0, symSize: 0x24 }
...
